target datalayout = "e-m:e-p270:32:32-p271:32:32-p272:64:64-i64:64-i128:128-f80:128-n8:16:32:64-S128"
target triple = "x86_64-pc-linux-gnu"

%class.Effect = type <{ %"class.std::vector", %"class.std::vector", %"class.std::vector", i8, i8, [6 x i8] }>
%"class.std::vector" = type { %"struct.std::_Vector_base" }
%"struct.std::_Vector_base" = type { %"struct.std::_Vector_base<const Variable *, std::allocator<const Variable *>>::_Vector_impl" }
%"struct.std::_Vector_base<const Variable *, std::allocator<const Variable *>>::_Vector_impl" = type { %"struct.std::_Vector_base<const Variable *, std::allocator<const Variable *>>::_Vector_impl_data" }
%"struct.std::_Vector_base<const Variable *, std::allocator<const Variable *>>::_Vector_impl_data" = type { ptr, ptr, ptr }

; Function Attrs: mustprogress nounwind uwtable
define linkonce_odr dso_local noundef nonnull align 8 dereferenceable(8) ptr @_ZNKSt6vectorIPK8VariableSaIS2_EEixEm(ptr noundef nonnull align 8 dereferenceable(24) %0, i64 noundef %1) #6 comdat align 2 {
  %3 = alloca ptr, align 8
  %4 = alloca i64, align 8
  store ptr %0, ptr %3, align 8, !tbaa !20
  store i64 %1, ptr %4, align 8, !tbaa !22
  %5 = load ptr, ptr %3, align 8
  %6 = getelementptr inbounds nuw %"struct.std::_Vector_base", ptr %5, i32 0, i32 0
  %7 = getelementptr inbounds nuw %"struct.std::_Vector_base<const Variable *, std::allocator<const Variable *>>::_Vector_impl_data", ptr %6, i32 0, i32 0
  %8 = load ptr, ptr %7, align 8, !tbaa !24
  %9 = load i64, ptr %4, align 8, !tbaa !22
  %10 = getelementptr inbounds nuw ptr, ptr %8, i64 %9
  ret ptr %10
}

; Function Attrs: mustprogress nounwind uwtable
define linkonce_odr dso_local noundef i64 @_ZNKSt6vectorIPK8VariableSaIS2_EE4sizeEv(ptr noundef nonnull align 8 dereferenceable(24) %0) #6 comdat align 2 {
  %2 = alloca ptr, align 8
  store ptr %0, ptr %2, align 8, !tbaa !20
  %3 = load ptr, ptr %2, align 8
  %4 = getelementptr inbounds nuw %"struct.std::_Vector_base", ptr %3, i32 0, i32 0
  %5 = getelementptr inbounds nuw %"struct.std::_Vector_base<const Variable *, std::allocator<const Variable *>>::_Vector_impl_data", ptr %4, i32 0, i32 1
  %6 = load ptr, ptr %5, align 8, !tbaa !25
  %7 = getelementptr inbounds nuw %"struct.std::_Vector_base", ptr %3, i32 0, i32 0
  %8 = getelementptr inbounds nuw %"struct.std::_Vector_base<const Variable *, std::allocator<const Variable *>>::_Vector_impl_data", ptr %7, i32 0, i32 0
  %9 = load ptr, ptr %8, align 8, !tbaa !24
  %10 = ptrtoint ptr %6 to i64
  %11 = ptrtoint ptr %9 to i64
  %12 = sub i64 %10, %11
  %13 = sdiv exact i64 %12, 8
  ret i64 %13
}

; Function Attrs: mustprogress uwtable
define dso_local noundef zeroext i1 @_ZNK6Effect17has_global_effectEv(ptr noundef nonnull align 8 dereferenceable(74) %0) #4 align 2 {
  %2 = alloca i1, align 1
  %3 = alloca ptr, align 8
  %4 = alloca i64, align 8
  %5 = alloca i64, align 8
  %6 = alloca i32, align 4
  store ptr %0, ptr %3, align 8, !tbaa !4
  %7 = load ptr, ptr %3, align 8
  call void @llvm.lifetime.start.p0(i64 8, ptr %4) #3
  call void @llvm.lifetime.start.p0(i64 8, ptr %5) #3
  %8 = getelementptr inbounds nuw %class.Effect, ptr %7, i32 0, i32 0
  %9 = call noundef i64 @_ZNKSt6vectorIPK8VariableSaIS2_EE4sizeEv(ptr noundef nonnull align 8 dereferenceable(24) %8) #3
  store i64 %9, ptr %4, align 8, !tbaa !22
  store i64 0, ptr %5, align 8, !tbaa !22
  br label %10

10:                                               ; preds = %25, %1
  %11 = load i64, ptr %5, align 8, !tbaa !22
  %12 = load i64, ptr %4, align 8, !tbaa !22
  %13 = icmp ult i64 %11, %12
  br i1 %13, label %14, label %28

14:                                               ; preds = %10
  %15 = getelementptr inbounds nuw %class.Effect, ptr %7, i32 0, i32 0
  %16 = load i64, ptr %5, align 8, !tbaa !22
  %17 = call noundef nonnull align 8 dereferenceable(8) ptr @_ZNKSt6vectorIPK8VariableSaIS2_EEixEm(ptr noundef nonnull align 8 dereferenceable(24) %15, i64 noundef %16) #3
  %18 = load ptr, ptr %17, align 8, !tbaa !30
  %19 = load ptr, ptr %18, align 8, !tbaa !85
  %20 = getelementptr inbounds ptr, ptr %19, i64 2
  %21 = load ptr, ptr %20, align 8
  %22 = call noundef zeroext i1 %21(ptr noundef nonnull align 8 dereferenceable(200) %18)
  br i1 %22, label %23, label %24

23:                                               ; preds = %14
  store i1 true, ptr %2, align 1
  store i32 1, ptr %6, align 4
  br label %50

24:                                               ; preds = %14
  br label %25

25:                                               ; preds = %24
  %26 = load i64, ptr %5, align 8, !tbaa !22
  %27 = add i64 %26, 1
  store i64 %27, ptr %5, align 8, !tbaa !22
  br label %10, !llvm.loop !139

28:                                               ; preds = %10
  %29 = getelementptr inbounds nuw %class.Effect, ptr %7, i32 0, i32 1
  %30 = call noundef i64 @_ZNKSt6vectorIPK8VariableSaIS2_EE4sizeEv(ptr noundef nonnull align 8 dereferenceable(24) %29) #3
  store i64 %30, ptr %4, align 8, !tbaa !22
  store i64 0, ptr %5, align 8, !tbaa !22
  br label %31

31:                                               ; preds = %46, %28
  %32 = load i64, ptr %5, align 8, !tbaa !22
  %33 = load i64, ptr %4, align 8, !tbaa !22
  %34 = icmp ult i64 %32, %33
  br i1 %34, label %35, label %49

35:                                               ; preds = %31
  %36 = getelementptr inbounds nuw %class.Effect, ptr %7, i32 0, i32 1
  %37 = load i64, ptr %5, align 8, !tbaa !22
  %38 = call noundef nonnull align 8 dereferenceable(8) ptr @_ZNKSt6vectorIPK8VariableSaIS2_EEixEm(ptr noundef nonnull align 8 dereferenceable(24) %36, i64 noundef %37) #3
  %39 = load ptr, ptr %38, align 8, !tbaa !30
  %40 = load ptr, ptr %39, align 8, !tbaa !85
  %41 = getelementptr inbounds ptr, ptr %40, i64 2
  %42 = load ptr, ptr %41, align 8
  %43 = call noundef zeroext i1 %42(ptr noundef nonnull align 8 dereferenceable(200) %39)
  br i1 %43, label %44, label %45

44:                                               ; preds = %35
  store i1 true, ptr %2, align 1
  store i32 1, ptr %6, align 4
  br label %50

45:                                               ; preds = %35
  br label %46

46:                                               ; preds = %45
  %47 = load i64, ptr %5, align 8, !tbaa !22
  %48 = add i64 %47, 1
  store i64 %48, ptr %5, align 8, !tbaa !22
  br label %31, !llvm.loop !140

49:                                               ; preds = %31
  store i1 false, ptr %2, align 1
  store i32 1, ptr %6, align 4
  br label %50

50:                                               ; preds = %49, %44, %23
  call void @llvm.lifetime.end.p0(i64 8, ptr %5) #3
  call void @llvm.lifetime.end.p0(i64 8, ptr %4) #3
  %51 = load i1, ptr %2, align 1
  ret i1 %51
}