; Function Attrs: mustprogress uwtable
define dso_local noundef zeroext i1 @_ZNK6Effect17has_global_effectEv(ptr noundef nonnull readonly align 8 captures(none) dereferenceable(74) %0) local_unnamed_addr #5 align 2 {
  %2 = getelementptr inbounds nuw i8, ptr %0, i64 8
  %3 = load ptr, ptr %2, align 8, !tbaa !16
  %4 = load ptr, ptr %0, align 8, !tbaa !17
  %.not = icmp eq ptr %3, %4
  br i1 %.not, label %._crit_edge, label %.lr.ph.preheader

.lr.ph.preheader:                                 ; preds = %1
  %5 = ptrtoint ptr %3 to i64
  %6 = ptrtoint ptr %4 to i64
  %7 = sub i64 %5, %6
  %8 = ashr exact i64 %7, 3
  %umax = tail call i64 @llvm.umax.i64(i64 %8, i64 1)
  br label %.lr.ph

9:                                                ; preds = %.lr.ph
  %10 = add nuw i64 %.011, 1
  %exitcond.not = icmp eq i64 %10, %umax
  br i1 %exitcond.not, label %._crit_edge, label %.lr.ph, !llvm.loop !156

.lr.ph:                                           ; preds = %.lr.ph.preheader, %9
  %.011 = phi i64 [ %10, %9 ], [ 0, %.lr.ph.preheader ]
  %11 = load ptr, ptr %0, align 8, !tbaa !17
  %12 = getelementptr inbounds nuw ptr, ptr %11, i64 %.011
  %13 = load ptr, ptr %12, align 8, !tbaa !23
  %14 = load ptr, ptr %13, align 8, !tbaa !77
  %15 = getelementptr inbounds nuw i8, ptr %14, i64 16
  %16 = load ptr, ptr %15, align 8
  %17 = tail call noundef zeroext i1 %16(ptr noundef nonnull align 8 dereferenceable(200) %13)
  br i1 %17, label %.loopexit, label %9

._crit_edge:                                      ; preds = %9, %1
  %18 = getelementptr inbounds nuw i8, ptr %0, i64 24
  %19 = getelementptr inbounds nuw i8, ptr %0, i64 32
  %20 = load ptr, ptr %19, align 8, !tbaa !16
  %21 = load ptr, ptr %18, align 8, !tbaa !17
  %.not17 = icmp eq ptr %20, %21
  br i1 %.not17, label %.loopexit, label %.lr.ph14.preheader

.lr.ph14.preheader:                               ; preds = %._crit_edge
  %22 = ptrtoint ptr %20 to i64
  %23 = ptrtoint ptr %21 to i64
  %24 = sub i64 %22, %23
  %25 = ashr exact i64 %24, 3
  %umax19 = tail call i64 @llvm.umax.i64(i64 %25, i64 1)
  br label %.lr.ph14

.lr.ph14:                                         ; preds = %.lr.ph14, %.lr.ph14.preheader
  %.112 = phi i64 [ 0, %.lr.ph14.preheader ], [ %33, %.lr.ph14 ]
  %26 = load ptr, ptr %18, align 8, !tbaa !17
  %27 = getelementptr inbounds nuw ptr, ptr %26, i64 %.112
  %28 = load ptr, ptr %27, align 8, !tbaa !23
  %29 = load ptr, ptr %28, align 8, !tbaa !77
  %30 = getelementptr inbounds nuw i8, ptr %29, i64 16
  %31 = load ptr, ptr %30, align 8
  %32 = tail call noundef zeroext i1 %31(ptr noundef nonnull align 8 dereferenceable(200) %28)
  %33 = add nuw i64 %.112, 1
  %exitcond20.not = icmp eq i64 %33, %umax19
  %or.cond = select i1 %32, i1 true, i1 %exitcond20.not
  br i1 %or.cond, label %.loopexit, label %.lr.ph14, !llvm.loop !157

.loopexit:                                        ; preds = %.lr.ph, %.lr.ph14, %._crit_edge
  %.09 = phi i1 [ false, %._crit_edge ], [ %32, %.lr.ph14 ], [ true, %.lr.ph ]
  ret i1 %.09
}